	.file	"x64.c"
	.text
	.globl	f1
	.type	f1, @function
f1:
.LFB0:
	.cfi_startproc
	pushq	%rbp
	.cfi_def_cfa_offset 16
	.cfi_offset 6, -16
	movq	%rsp, %rbp
	.cfi_def_cfa_register 6
	movq	%rdi, -8(%rbp)
	nop
	popq	%rbp
	.cfi_def_cfa 7, 8
	ret
	.cfi_endproc
.LFE0:
	.size	f1, .-f1
	.globl	f2
	.type	f2, @function
f2:
.LFB1:
	.cfi_startproc
	pushq	%rbp
	.cfi_def_cfa_offset 16
	.cfi_offset 6, -16
	movq	%rsp, %rbp
	.cfi_def_cfa_register 6
	movq	%rdi, -8(%rbp)
	movq	%rsi, -16(%rbp)
	nop
	popq	%rbp
	.cfi_def_cfa 7, 8
	ret
	.cfi_endproc
.LFE1:
	.size	f2, .-f2
	.globl	f3
	.type	f3, @function
f3:
.LFB2:
	.cfi_startproc
	pushq	%rbp
	.cfi_def_cfa_offset 16
	.cfi_offset 6, -16
	movq	%rsp, %rbp
	.cfi_def_cfa_register 6
	movq	%rdi, -8(%rbp)
	movq	%rsi, -16(%rbp)
	movq	%rdx, -24(%rbp)
	nop
	popq	%rbp
	.cfi_def_cfa 7, 8
	ret
	.cfi_endproc
.LFE2:
	.size	f3, .-f3
	.globl	f4
	.type	f4, @function
f4:
.LFB3:
	.cfi_startproc
	pushq	%rbp
	.cfi_def_cfa_offset 16
	.cfi_offset 6, -16
	movq	%rsp, %rbp
	.cfi_def_cfa_register 6
	movq	%rdi, -8(%rbp)
	movq	%rsi, -16(%rbp)
	movq	%rdx, -24(%rbp)
	movq	%rcx, -32(%rbp)
	nop
	popq	%rbp
	.cfi_def_cfa 7, 8
	ret
	.cfi_endproc
.LFE3:
	.size	f4, .-f4
	.globl	f5
	.type	f5, @function
f5:
.LFB4:
	.cfi_startproc
	pushq	%rbp
	.cfi_def_cfa_offset 16
	.cfi_offset 6, -16
	movq	%rsp, %rbp
	.cfi_def_cfa_register 6
	movq	%rdi, -8(%rbp)
	movq	%rsi, -16(%rbp)
	movq	%rdx, -24(%rbp)
	movq	%rcx, -32(%rbp)
	movq	%r8, -40(%rbp)
	nop
	popq	%rbp
	.cfi_def_cfa 7, 8
	ret
	.cfi_endproc
.LFE4:
	.size	f5, .-f5
	.globl	f6
	.type	f6, @function
f6:
.LFB5:
	.cfi_startproc
	pushq	%rbp
	.cfi_def_cfa_offset 16
	.cfi_offset 6, -16
	movq	%rsp, %rbp
	.cfi_def_cfa_register 6
	movq	%rdi, -8(%rbp)
	movq	%rsi, -16(%rbp)
	movq	%rdx, -24(%rbp)
	movq	%rcx, -32(%rbp)
	movq	%r8, -40(%rbp)
	movq	%r9, -48(%rbp)
	nop
	popq	%rbp
	.cfi_def_cfa 7, 8
	ret
	.cfi_endproc
.LFE5:
	.size	f6, .-f6
	.globl	f7
	.type	f7, @function
f7:
.LFB6:
	.cfi_startproc
	pushq	%rbp
	.cfi_def_cfa_offset 16
	.cfi_offset 6, -16
	movq	%rsp, %rbp
	.cfi_def_cfa_register 6
	movq	%rdi, -24(%rbp)
	movq	%rsi, -32(%rbp)
	movq	%rdx, -40(%rbp)
	movq	%rcx, -48(%rbp)
	movq	%r8, -56(%rbp)
	movq	%r9, -64(%rbp)
	movq	-24(%rbp), %rdx
	movq	-32(%rbp), %rax
	addq	%rax, %rdx
	movq	-40(%rbp), %rax
	addq	%rax, %rdx
	movq	16(%rbp), %rax
	addq	%rdx, %rax
	movq	%rax, -8(%rbp)
	movq	-8(%rbp), %rax
	popq	%rbp
	.cfi_def_cfa 7, 8
	ret
	.cfi_endproc
.LFE6:
	.size	f7, .-f7
	.globl	main
	.type	main, @function
main:
.LFB7:
	.cfi_startproc
	pushq	%rbp
	.cfi_def_cfa_offset 16
	.cfi_offset 6, -16
	movq	%rsp, %rbp
	.cfi_def_cfa_register 6
	movl	$1, %edi
	call	f1
	movl	$2, %esi
	movl	$1, %edi
	call	f2
	movl	$3, %edx
	movl	$2, %esi
	movl	$1, %edi
	call	f3
	movl	$4, %ecx
	movl	$3, %edx
	movl	$2, %esi
	movl	$1, %edi
	call	f4
	movl	$5, %r8d
	movl	$4, %ecx
	movl	$3, %edx
	movl	$2, %esi
	movl	$1, %edi
	call	f5
	movl	$6, %r9d
	movl	$5, %r8d
	movl	$4, %ecx
	movl	$3, %edx
	movl	$2, %esi
	movl	$1, %edi
	call	f6
	pushq	$7
	movl	$6, %r9d
	movl	$5, %r8d
	movl	$4, %ecx
	movl	$3, %edx
	movl	$2, %esi
	movl	$1, %edi
	call	f7
	addq	$8, %rsp
	movl	$0, %eax
	leave
	.cfi_def_cfa 7, 8
	ret
	.cfi_endproc
.LFE7:
	.size	main, .-main
	.ident	"GCC: (Debian 6.3.0-18+deb9u1) 6.3.0 20170516"
	.section	.note.GNU-stack,"",@progbits
